; Function Attrs: nounwind uwtable
define void @OPENSSL_LH_doall(ptr noundef readonly captures(address_is_null) %0, ptr noundef %1) local_unnamed_addr #1 {
  %3 = icmp eq ptr %0, null
  br i1 %3, label %doall_util_fn.exit, label %4

4:                                                ; preds = %2
  %5 = getelementptr inbounds nuw i8, ptr %0, i64 40
  %6 = load ptr, ptr %5, align 8, !tbaa !12
  %7 = getelementptr inbounds nuw i8, ptr %0, i64 56
  %8 = load i32, ptr %7, align 8, !tbaa !17
  %.022.i = add i32 %8, -1
  %9 = icmp sgt i32 %.022.i, -1
  br i1 %9, label %.lr.ph24.i, label %doall_util_fn.exit

.lr.ph24.i:                                       ; preds = %4
  %10 = zext nneg i32 %.022.i to i64
  br label %.lr.ph24.split.us.i

.lr.ph24.split.us.i:                              ; preds = %.loopexit.us.i, %.lr.ph24.i
  %indvars.iv27.i = phi i64 [ %indvars.iv.next28.i, %.loopexit.us.i ], [ %10, %.lr.ph24.i ]
  %11 = load ptr, ptr %0, align 8, !tbaa !14
  %12 = getelementptr inbounds nuw ptr, ptr %11, i64 %indvars.iv27.i
  %13 = load ptr, ptr %12, align 8, !tbaa !25
  %.not20.us.i = icmp eq ptr %13, null
  br i1 %.not20.us.i, label %.loopexit.us.i, label %.lr.ph.us.i

.loopexit.us.i:                                   ; preds = %.lr.ph.us.i, %.lr.ph24.split.us.i
  %indvars.iv.next28.i = add nsw i64 %indvars.iv27.i, -1
  %14 = icmp sgt i64 %indvars.iv27.i, 0
  br i1 %14, label %.lr.ph24.split.us.i, label %doall_util_fn.exit, !llvm.loop !39

.lr.ph.us.i:                                      ; preds = %.lr.ph24.split.us.i, %.lr.ph.us.i
  %.01621.us.us.i = phi ptr [ %16, %.lr.ph.us.i ], [ %13, %.lr.ph24.split.us.i ]
  %15 = getelementptr inbounds nuw i8, ptr %.01621.us.us.i, i64 8
  %16 = load ptr, ptr %15, align 8, !tbaa !27
  %17 = load ptr, ptr %.01621.us.us.i, align 8, !tbaa !36
  tail call void %6(ptr noundef %17, ptr noundef %1) #7
  %.not.us.us.i = icmp eq ptr %16, null
  br i1 %.not.us.us.i, label %.loopexit.us.i, label %.lr.ph.us.i, !llvm.loop !40

doall_util_fn.exit:                               ; preds = %.loopexit.us.i, %4, %2
  ret void
}